
lab2_3.elf:     file format elf32-avr

Sections:
Idx Name          Size      VMA       LMA       File off  Algn
  0 .data         00000000  00800100  00800100  0000017a  2**0
                  CONTENTS, ALLOC, LOAD, DATA
  1 .text         00000126  00000000  00000000  00000054  2**1
                  CONTENTS, ALLOC, LOAD, READONLY, CODE
  2 .comment      00000030  00000000  00000000  0000017a  2**0
                  CONTENTS, READONLY
  3 .note.gnu.avr.deviceinfo 00000040  00000000  00000000  000001ac  2**2
                  CONTENTS, READONLY
  4 .debug_aranges 00000060  00000000  00000000  000001ec  2**0
                  CONTENTS, READONLY, DEBUGGING
  5 .debug_info   000009b6  00000000  00000000  0000024c  2**0
                  CONTENTS, READONLY, DEBUGGING
  6 .debug_abbrev 0000084f  00000000  00000000  00000c02  2**0
                  CONTENTS, READONLY, DEBUGGING
  7 .debug_line   00000328  00000000  00000000  00001451  2**0
                  CONTENTS, READONLY, DEBUGGING
  8 .debug_frame  000000a4  00000000  00000000  0000177c  2**2
                  CONTENTS, READONLY, DEBUGGING
  9 .debug_str    000004a3  00000000  00000000  00001820  2**0
                  CONTENTS, READONLY, DEBUGGING
 10 .debug_loc    0000004d  00000000  00000000  00001cc3  2**0
                  CONTENTS, READONLY, DEBUGGING
 11 .debug_ranges 00000050  00000000  00000000  00001d10  2**0
                  CONTENTS, READONLY, DEBUGGING

Disassembly of section .text:

00000000 <__vectors>:
   0:	45 c0       	rjmp	.+138    	; 0x8c <__ctors_end>
   2:	00 00       	nop
   4:	4b c0       	rjmp	.+150    	; 0x9c <__bad_interrupt>
   6:	00 00       	nop
   8:	49 c0       	rjmp	.+146    	; 0x9c <__bad_interrupt>
   a:	00 00       	nop
   c:	47 c0       	rjmp	.+142    	; 0x9c <__bad_interrupt>
   e:	00 00       	nop
  10:	45 c0       	rjmp	.+138    	; 0x9c <__bad_interrupt>
  12:	00 00       	nop
  14:	43 c0       	rjmp	.+134    	; 0x9c <__bad_interrupt>
  16:	00 00       	nop
  18:	41 c0       	rjmp	.+130    	; 0x9c <__bad_interrupt>
  1a:	00 00       	nop
  1c:	3f c0       	rjmp	.+126    	; 0x9c <__bad_interrupt>
  1e:	00 00       	nop
  20:	3d c0       	rjmp	.+122    	; 0x9c <__bad_interrupt>
  22:	00 00       	nop
  24:	3b c0       	rjmp	.+118    	; 0x9c <__bad_interrupt>
  26:	00 00       	nop
  28:	39 c0       	rjmp	.+114    	; 0x9c <__bad_interrupt>
  2a:	00 00       	nop
  2c:	37 c0       	rjmp	.+110    	; 0x9c <__bad_interrupt>
  2e:	00 00       	nop
  30:	35 c0       	rjmp	.+106    	; 0x9c <__bad_interrupt>
  32:	00 00       	nop
  34:	33 c0       	rjmp	.+102    	; 0x9c <__bad_interrupt>
  36:	00 00       	nop
  38:	31 c0       	rjmp	.+98     	; 0x9c <__bad_interrupt>
  3a:	00 00       	nop
  3c:	2f c0       	rjmp	.+94     	; 0x9c <__bad_interrupt>
  3e:	00 00       	nop
  40:	2d c0       	rjmp	.+90     	; 0x9c <__bad_interrupt>
  42:	00 00       	nop
  44:	2b c0       	rjmp	.+86     	; 0x9c <__bad_interrupt>
  46:	00 00       	nop
  48:	29 c0       	rjmp	.+82     	; 0x9c <__bad_interrupt>
  4a:	00 00       	nop
  4c:	27 c0       	rjmp	.+78     	; 0x9c <__bad_interrupt>
  4e:	00 00       	nop
  50:	25 c0       	rjmp	.+74     	; 0x9c <__bad_interrupt>
  52:	00 00       	nop
  54:	23 c0       	rjmp	.+70     	; 0x9c <__bad_interrupt>
  56:	00 00       	nop
  58:	21 c0       	rjmp	.+66     	; 0x9c <__bad_interrupt>
  5a:	00 00       	nop
  5c:	1f c0       	rjmp	.+62     	; 0x9c <__bad_interrupt>
  5e:	00 00       	nop
  60:	1d c0       	rjmp	.+58     	; 0x9c <__bad_interrupt>
  62:	00 00       	nop
  64:	1b c0       	rjmp	.+54     	; 0x9c <__bad_interrupt>
  66:	00 00       	nop
  68:	19 c0       	rjmp	.+50     	; 0x9c <__bad_interrupt>
  6a:	00 00       	nop
  6c:	17 c0       	rjmp	.+46     	; 0x9c <__bad_interrupt>
  6e:	00 00       	nop
  70:	15 c0       	rjmp	.+42     	; 0x9c <__bad_interrupt>
  72:	00 00       	nop
  74:	13 c0       	rjmp	.+38     	; 0x9c <__bad_interrupt>
  76:	00 00       	nop
  78:	11 c0       	rjmp	.+34     	; 0x9c <__bad_interrupt>
  7a:	00 00       	nop
  7c:	0f c0       	rjmp	.+30     	; 0x9c <__bad_interrupt>
  7e:	00 00       	nop
  80:	0d c0       	rjmp	.+26     	; 0x9c <__bad_interrupt>
  82:	00 00       	nop
  84:	0b c0       	rjmp	.+22     	; 0x9c <__bad_interrupt>
  86:	00 00       	nop
  88:	09 c0       	rjmp	.+18     	; 0x9c <__bad_interrupt>
	...

0000008c <__ctors_end>:
  8c:	11 24       	eor	r1, r1
  8e:	1f be       	out	0x3f, r1	; 63
  90:	cf ef       	ldi	r28, 0xFF	; 255
  92:	d0 e4       	ldi	r29, 0x40	; 64
  94:	de bf       	out	0x3e, r29	; 62
  96:	cd bf       	out	0x3d, r28	; 61
  98:	35 d0       	rcall	.+106    	; 0x104 <main>
  9a:	43 c0       	rjmp	.+134    	; 0x122 <_exit>

0000009c <__bad_interrupt>:
  9c:	b1 cf       	rjmp	.-158    	; 0x0 <__vectors>

0000009e <set_compare_outputmode_to_PWM>:


// pulse width percentage, percentage of the period the the pulse (0) is active.
// Higher 
void set_duty_cycle(uint8_t percentage) {
	uint16_t pulse_value = OCR3AL;
  9e:	e0 e9       	ldi	r30, 0x90	; 144
  a0:	f0 e0       	ldi	r31, 0x00	; 0
  a2:	80 81       	ld	r24, Z
  a4:	80 68       	ori	r24, 0x80	; 128
  a6:	80 83       	st	Z, r24
  a8:	80 81       	ld	r24, Z
  aa:	8f 7b       	andi	r24, 0xBF	; 191
  ac:	80 83       	st	Z, r24
  ae:	80 81       	ld	r24, Z
  b0:	80 62       	ori	r24, 0x20	; 32
  b2:	80 83       	st	Z, r24
  b4:	80 81       	ld	r24, Z
  b6:	8f 7e       	andi	r24, 0xEF	; 239
  b8:	80 83       	st	Z, r24
  ba:	08 95       	ret

000000bc <set_wave_form_mode_to_PWM_top_ICR3>:
  bc:	e1 e9       	ldi	r30, 0x91	; 145
  be:	f0 e0       	ldi	r31, 0x00	; 0
  c0:	80 81       	ld	r24, Z
  c2:	80 61       	ori	r24, 0x10	; 16
  c4:	80 83       	st	Z, r24
  c6:	80 81       	ld	r24, Z
  c8:	88 60       	ori	r24, 0x08	; 8
  ca:	80 83       	st	Z, r24
  cc:	e0 e9       	ldi	r30, 0x90	; 144
  ce:	f0 e0       	ldi	r31, 0x00	; 0
  d0:	80 81       	ld	r24, Z
  d2:	82 60       	ori	r24, 0x02	; 2
  d4:	80 83       	st	Z, r24
  d6:	80 81       	ld	r24, Z
  d8:	8e 7f       	andi	r24, 0xFE	; 254
  da:	80 83       	st	Z, r24
  dc:	08 95       	ret

000000de <configure_timer3_prescaler_value_1024>:
  de:	e1 e9       	ldi	r30, 0x91	; 145
  e0:	f0 e0       	ldi	r31, 0x00	; 0
  e2:	80 81       	ld	r24, Z
  e4:	84 60       	ori	r24, 0x04	; 4
  e6:	80 83       	st	Z, r24
  e8:	80 81       	ld	r24, Z
  ea:	8d 7f       	andi	r24, 0xFD	; 253
  ec:	80 83       	st	Z, r24
  ee:	80 81       	ld	r24, Z
  f0:	81 60       	ori	r24, 0x01	; 1
  f2:	80 83       	st	Z, r24
  f4:	08 95       	ret

000000f6 <configure_Pin_PB6_to_output>:
  f6:	26 9a       	sbi	0x04, 6	; 4
  f8:	08 95       	ret

000000fa <timer3_init>:
  fa:	d1 df       	rcall	.-94     	; 0x9e <set_compare_outputmode_to_PWM>
  fc:	df df       	rcall	.-66     	; 0xbc <set_wave_form_mode_to_PWM_top_ICR3>
  fe:	ef df       	rcall	.-34     	; 0xde <configure_timer3_prescaler_value_1024>
 100:	fa cf       	rjmp	.-12     	; 0xf6 <configure_Pin_PB6_to_output>
 102:	08 95       	ret

00000104 <main>:
}


int main(void)
{
	timer3_init();
 104:	fa df       	rcall	.-12     	; 0xfa <timer3_init>
	configure_Pin_PB6_to_output();
}

// After which period the pulse should 
void set_pulse(uint16_t pulse_value){
	OCR3AL = pulse_value;
 106:	8f ef       	ldi	r24, 0xFF	; 255
 108:	80 93 98 00 	sts	0x0098, r24	; 0x800098 <__TEXT_REGION_LENGTH__+0x7e0098>
	OCR3AH = (pulse_value >> 8);
 10c:	97 e0       	ldi	r25, 0x07	; 7
 10e:	90 93 99 00 	sts	0x0099, r25	; 0x800099 <__TEXT_REGION_LENGTH__+0x7e0099>
}

void set_period(uint16_t period){
	// sets input capture register ICR3
	ICR3L = period;		 // Sets ICR3[7:0]
 112:	80 93 96 00 	sts	0x0096, r24	; 0x800096 <__TEXT_REGION_LENGTH__+0x7e0096>
	ICR3H = (period >> 8); // Sets ICR3[15:8]
 116:	8f e0       	ldi	r24, 0x0F	; 15
 118:	80 93 97 00 	sts	0x0097, r24	; 0x800097 <__TEXT_REGION_LENGTH__+0x7e0097>
	
	
	// PWM period = period - pulse => 0xFFFF - 0x00FF
	
	// Duty cycle = PWM / T = (0xFFFF - 0x0FF) / 0xFFFF
}
 11c:	80 e0       	ldi	r24, 0x00	; 0
 11e:	90 e0       	ldi	r25, 0x00	; 0
 120:	08 95       	ret

00000122 <_exit>:
 122:	f8 94       	cli

00000124 <__stop_program>:
 124:	ff cf       	rjmp	.-2      	; 0x124 <__stop_program>
